; Function Attrs: mustprogress nofree norecurse nounwind willreturn uwtable
define hidden void @_ZN8G1CMTask19update_region_limitEv(ptr nocapture noundef nonnull align 8 dereferenceable(376) %0) local_unnamed_addr #14 align 2 {
  %2 = getelementptr inbounds i8, ptr %0, i64 136
  %3 = load ptr, ptr %2, align 8
  %4 = load ptr, ptr %3, align 8
  %5 = getelementptr inbounds i8, ptr %0, i64 32
  %6 = load ptr, ptr %5, align 8
  %7 = getelementptr inbounds i8, ptr %3, i64 48
  %8 = load i32, ptr %7, align 8
  %9 = getelementptr inbounds i8, ptr %6, i64 1832
  %10 = load ptr, ptr %9, align 8
  %11 = zext i32 %8 to i64
  %12 = getelementptr inbounds ptr, ptr %10, i64 %11
  %13 = load volatile ptr, ptr %12, align 8
  %14 = icmp eq ptr %13, %4
  br i1 %14, label %.sink.split, label %15

15:                                               ; preds = %1
  %16 = getelementptr inbounds i8, ptr %0, i64 152
  %17 = load ptr, ptr %16, align 8
  %.not = icmp ult ptr %13, %17
  br i1 %.not, label %.sink.split, label %19

.sink.split:                                      ; preds = %15, %1
  %.sink = phi ptr [ %4, %1 ], [ %13, %15 ]
  %18 = getelementptr inbounds i8, ptr %0, i64 144
  store ptr %.sink, ptr %18, align 8
  br label %19

19:                                               ; preds = %.sink.split, %15
  %20 = getelementptr inbounds i8, ptr %0, i64 152
  store ptr %13, ptr %20, align 8
  ret void
}